target datalayout = "e-m:e-p270:32:32-p271:32:32-p272:64:64-i64:64-i128:128-f80:128-n8:16:32:64-S128"
target triple = "x86_64-pc-linux-gnu"

%struct.quic_lcidm_st = type { ptr, ptr, ptr, i64 }
%struct.quic_lcid_st = type { %struct.quic_conn_id_st, i64, ptr, i8 }
%struct.quic_conn_id_st = type { i8, [20 x i8] }
%struct.quic_lcidm_conn_st = type { i64, ptr, ptr, ptr, i64, i8 }

; Function Attrs: inlinehint nounwind uwtable
define internal ptr @lh_QUIC_LCID_retrieve(ptr noundef %0, ptr noundef %1) #3 {
  %3 = alloca ptr, align 8
  %4 = alloca ptr, align 8
  store ptr %0, ptr %3, align 8, !tbaa !30
  store ptr %1, ptr %4, align 8, !tbaa !20
  %5 = load ptr, ptr %3, align 8, !tbaa !30
  %6 = load ptr, ptr %4, align 8, !tbaa !20
  %7 = call ptr @OPENSSL_LH_retrieve(ptr noundef %5, ptr noundef %6)
  ret ptr %7
}

; Function Attrs: nounwind uwtable
define i32 @ossl_quic_lcidm_enrol_odcid(ptr noundef %0, ptr noundef %1, ptr noundef %2) #0 {
  %4 = alloca i32, align 4
  %5 = alloca ptr, align 8
  %6 = alloca ptr, align 8
  %7 = alloca ptr, align 8
  %8 = alloca ptr, align 8
  %9 = alloca %struct.quic_lcid_st, align 8
  %10 = alloca ptr, align 8
  %11 = alloca i32, align 4
  store ptr %0, ptr %5, align 8, !tbaa !10
  store ptr %1, ptr %6, align 8, !tbaa !19
  store ptr %2, ptr %7, align 8, !tbaa !33
  call void @llvm.lifetime.start.p0(i64 8, ptr %8) #7
  call void @llvm.lifetime.start.p0(i64 48, ptr %9) #7
  call void @llvm.lifetime.start.p0(i64 8, ptr %10) #7
  %12 = load ptr, ptr %7, align 8, !tbaa !33
  %13 = icmp eq ptr %12, null
  br i1 %13, label %26, label %14

14:                                               ; preds = %3
  %15 = load ptr, ptr %7, align 8, !tbaa !33
  %16 = getelementptr inbounds nuw %struct.quic_conn_id_st, ptr %15, i32 0, i32 0
  %17 = load i8, ptr %16, align 1, !tbaa !35
  %18 = zext i8 %17 to i32
  %19 = icmp slt i32 %18, 8
  br i1 %19, label %26, label %20

20:                                               ; preds = %14
  %21 = load ptr, ptr %7, align 8, !tbaa !33
  %22 = getelementptr inbounds nuw %struct.quic_conn_id_st, ptr %21, i32 0, i32 0
  %23 = load i8, ptr %22, align 1, !tbaa !35
  %24 = zext i8 %23 to i32
  %25 = icmp sgt i32 %24, 20
  br i1 %25, label %26, label %27

26:                                               ; preds = %20, %14, %3
  store i32 0, ptr %4, align 4
  store i32 1, ptr %11, align 4
  br label %73

27:                                               ; preds = %20
  %28 = load ptr, ptr %5, align 8, !tbaa !10
  %29 = load ptr, ptr %6, align 8, !tbaa !19
  %30 = call ptr @lcidm_upsert_conn(ptr noundef %28, ptr noundef %29)
  store ptr %30, ptr %8, align 8, !tbaa !27
  %31 = icmp eq ptr %30, null
  br i1 %31, label %32, label %33

32:                                               ; preds = %27
  store i32 0, ptr %4, align 4
  store i32 1, ptr %11, align 4
  br label %73

33:                                               ; preds = %27
  %34 = load ptr, ptr %8, align 8, !tbaa !27
  %35 = getelementptr inbounds nuw %struct.quic_lcidm_conn_st, ptr %34, i32 0, i32 5
  %36 = load i8, ptr %35, align 8
  %37 = and i8 %36, 1
  %38 = zext i8 %37 to i32
  %39 = icmp ne i32 %38, 0
  br i1 %39, label %40, label %41

40:                                               ; preds = %33
  store i32 0, ptr %4, align 4
  store i32 1, ptr %11, align 4
  br label %73

41:                                               ; preds = %33
  %42 = getelementptr inbounds nuw %struct.quic_lcid_st, ptr %9, i32 0, i32 0
  %43 = load ptr, ptr %7, align 8, !tbaa !33
  call void @llvm.memcpy.p0.p0.i64(ptr align 8 %42, ptr align 1 %43, i64 21, i1 false), !tbaa.struct !36
  %44 = load ptr, ptr %5, align 8, !tbaa !10
  %45 = getelementptr inbounds nuw %struct.quic_lcidm_st, ptr %44, i32 0, i32 1
  %46 = load ptr, ptr %45, align 8, !tbaa !12
  %47 = call ptr @lh_QUIC_LCID_retrieve(ptr noundef %46, ptr noundef %9)
  %48 = icmp ne ptr %47, null
  br i1 %48, label %49, label %50

49:                                               ; preds = %41
  store i32 0, ptr %4, align 4
  store i32 1, ptr %11, align 4
  br label %73

50:                                               ; preds = %41
  %51 = load ptr, ptr %5, align 8, !tbaa !10
  %52 = load ptr, ptr %8, align 8, !tbaa !27
  %53 = load ptr, ptr %7, align 8, !tbaa !33
  %54 = call ptr @lcidm_conn_new_lcid(ptr noundef %51, ptr noundef %52, ptr noundef %53)
  store ptr %54, ptr %10, align 8, !tbaa !20
  %55 = icmp eq ptr %54, null
  br i1 %55, label %56, label %57

56:                                               ; preds = %50
  store i32 0, ptr %4, align 4
  store i32 1, ptr %11, align 4
  br label %73

57:                                               ; preds = %50
  %58 = load ptr, ptr %10, align 8, !tbaa !20
  %59 = getelementptr inbounds nuw %struct.quic_lcid_st, ptr %58, i32 0, i32 1
  store i64 -1, ptr %59, align 8, !tbaa !38
  %60 = load ptr, ptr %10, align 8, !tbaa !20
  %61 = getelementptr inbounds nuw %struct.quic_lcid_st, ptr %60, i32 0, i32 3
  %62 = load i8, ptr %61, align 8
  %63 = and i8 %62, -4
  %64 = or i8 %63, 0
  store i8 %64, ptr %61, align 8
  %65 = load ptr, ptr %10, align 8, !tbaa !20
  %66 = load ptr, ptr %8, align 8, !tbaa !27
  %67 = getelementptr inbounds nuw %struct.quic_lcidm_conn_st, ptr %66, i32 0, i32 3
  store ptr %65, ptr %67, align 8, !tbaa !39
  %68 = load ptr, ptr %8, align 8, !tbaa !27
  %69 = getelementptr inbounds nuw %struct.quic_lcidm_conn_st, ptr %68, i32 0, i32 5
  %70 = load i8, ptr %69, align 8
  %71 = and i8 %70, -2
  %72 = or i8 %71, 1
  store i8 %72, ptr %69, align 8
  store i32 1, ptr %4, align 4
  store i32 1, ptr %11, align 4
  br label %73

73:                                               ; preds = %57, %56, %49, %40, %32, %26
  call void @llvm.lifetime.end.p0(i64 8, ptr %10) #7
  call void @llvm.lifetime.end.p0(i64 48, ptr %9) #7
  call void @llvm.lifetime.end.p0(i64 8, ptr %8) #7
  %74 = load i32, ptr %4, align 4
  ret i32 %74
}