; Function Attrs: nounwind uwtable
define range(i32 0, 2) i32 @ossl_quic_lcidm_enrol_odcid(ptr noundef readonly captures(none) %0, ptr noundef %1, ptr noundef readonly captures(address_is_null) %2) local_unnamed_addr #0 {
  %4 = alloca %struct.quic_lcid_st, align 8
  call void @llvm.lifetime.start.p0(i64 48, ptr nonnull %4) #11
  %5 = icmp eq ptr %2, null
  br i1 %5, label %31, label %6

6:                                                ; preds = %3
  %7 = load i8, ptr %2, align 1, !tbaa !23
  %8 = add i8 %7, -21
  %or.cond = icmp ult i8 %8, -13
  br i1 %or.cond, label %31, label %9

9:                                                ; preds = %6
  %10 = tail call fastcc ptr @lcidm_upsert_conn(ptr noundef %0, ptr noundef %1)
  %11 = icmp eq ptr %10, null
  br i1 %11, label %31, label %12

12:                                               ; preds = %9
  %13 = getelementptr inbounds nuw i8, ptr %10, i64 40
  %14 = load i8, ptr %13, align 8
  %15 = and i8 %14, 1
  %.not = icmp eq i8 %15, 0
  br i1 %.not, label %16, label %31

16:                                               ; preds = %12
  call void @llvm.memcpy.p0.p0.i64(ptr noundef nonnull align 8 dereferenceable(21) %4, ptr noundef nonnull align 1 dereferenceable(21) %2, i64 21, i1 false), !tbaa.struct !29
  %17 = getelementptr inbounds nuw i8, ptr %0, i64 8
  %18 = load ptr, ptr %17, align 8, !tbaa !3
  %19 = call ptr @OPENSSL_LH_retrieve(ptr noundef %18, ptr noundef nonnull %4) #11
  %.not20 = icmp eq ptr %19, null
  br i1 %.not20, label %20, label %31

20:                                               ; preds = %16
  %21 = call fastcc ptr @lcidm_conn_new_lcid(ptr noundef nonnull %0, ptr noundef %10, ptr noundef nonnull %2)
  %22 = icmp eq ptr %21, null
  br i1 %22, label %31, label %23

23:                                               ; preds = %20
  %24 = getelementptr inbounds nuw i8, ptr %21, i64 24
  store i64 -1, ptr %24, align 8, !tbaa !30
  %25 = getelementptr inbounds nuw i8, ptr %21, i64 40
  %26 = load i8, ptr %25, align 8
  %27 = and i8 %26, -4
  store i8 %27, ptr %25, align 8
  %28 = getelementptr inbounds nuw i8, ptr %10, i64 24
  store ptr %21, ptr %28, align 8, !tbaa !31
  %29 = load i8, ptr %13, align 8
  %30 = or i8 %29, 1
  store i8 %30, ptr %13, align 8
  br label %31

31:                                               ; preds = %20, %16, %12, %9, %3, %6, %23
  %.0 = phi i32 [ 1, %23 ], [ 0, %6 ], [ 0, %3 ], [ 0, %9 ], [ 0, %12 ], [ 0, %16 ], [ 0, %20 ]
  call void @llvm.lifetime.end.p0(i64 48, ptr nonnull %4) #11
  ret i32 %.0
}